ccopy_reg
_reconstructor
p1
(cutil
Counter
p2
c__builtin__
dict
p3
(dp4
S'eats-food'
p5
F276.15899971871175
sS'closest-food'
p6
F-4.6588118679442676
sS'bias'
p7
F218.78618269129058
sS'#-of-ghosts-1-step-away'
p8
F-105.80885874139948
stRp9
.